Certificate:
    Data:
        Version: 3 (0x2)
        Serial Number:
            a2:28:77:f1:e3:53:7e:07:d9:43:d4:4f:4a:98:90:3c
        Signature Algorithm: sha256WithRSAEncryption
        Issuer: CN=Easy-RSA CA
        Validity
            Not Before: Nov 14 13:42:38 2025 GMT
            Not After : Nov  9 13:42:38 2045 GMT
        Subject: CN=bravolog
        Subject Public Key Info:
            Public Key Algorithm: rsaEncryption
                Public-Key: (2048 bit)
                Modulus:
                    00:a6:fd:23:67:c0:7c:59:fd:8a:bf:4c:15:97:0b:
                    61:fd:9f:f1:62:e9:58:fa:d9:46:85:3d:e0:68:9f:
                    2a:83:4e:04:67:ec:4f:90:a1:62:7e:82:33:2b:43:
                    57:f2:09:31:55:09:56:35:e3:cf:f9:99:5a:e9:5b:
                    d6:f7:f4:e7:fe:12:60:3c:26:a6:51:29:f5:32:05:
                    6c:e0:61:36:e3:fc:86:c7:6c:72:35:58:6a:1b:2a:
                    73:c7:f8:f3:34:ba:9f:a3:08:55:00:d0:15:d7:ae:
                    c2:5a:b1:54:12:e2:49:0f:c2:96:8d:73:a4:ee:8a:
                    56:4c:2b:2e:a3:8c:21:ea:db:50:3c:32:9d:88:4a:
                    4f:95:67:db:8f:45:16:16:43:59:bc:91:a1:c7:75:
                    18:a1:68:c1:44:1e:c1:03:34:24:2d:17:44:37:5c:
                    71:e5:50:bf:31:cd:d9:b0:f4:17:1b:93:7e:5b:b0:
                    0e:84:cd:ef:0f:52:22:b4:da:83:49:19:d0:fa:9e:
                    9e:a5:1f:54:3d:c1:09:d0:d2:b6:f8:9e:c7:9d:25:
                    e3:3d:f3:16:84:18:9e:62:e6:bf:6f:e3:71:a1:09:
                    e0:37:65:e7:77:a0:80:08:37:95:e4:0f:a5:01:20:
                    47:6e:8c:c4:a1:1d:95:f7:d9:ba:72:f1:cd:78:cf:
                    dc:99
                Exponent: 65537 (0x10001)
        X509v3 extensions:
            X509v3 Basic Constraints: 
                CA:FALSE
            X509v3 Subject Key Identifier: 
                6F:F4:0F:8A:7F:AE:10:73:5A:DD:DA:91:DD:B1:FE:E7:28:4D:51:99
            X509v3 Authority Key Identifier: 
                keyid:64:06:69:A7:01:46:09:D3:AD:13:65:D7:8F:B0:B5:01:30:68:56:A3
                DirName:/CN=Easy-RSA CA
                serial:46:63:8B:79:F4:01:F9:21:00:BF:FE:15:EA:E6:F3:96:E2:F2:83:F8
            X509v3 Extended Key Usage: 
                TLS Web Client Authentication
            X509v3 Key Usage: 
                Digital Signature
    Signature Algorithm: sha256WithRSAEncryption
    Signature Value:
        0f:40:da:1e:45:42:6e:0e:94:44:83:11:dc:71:f4:3d:a7:12:
        7b:99:4f:84:cd:57:09:10:b9:03:d7:f8:9b:b7:84:4f:25:9b:
        4d:dd:0f:23:f5:71:a0:f8:fc:26:cf:9a:53:9a:38:ee:8c:e6:
        40:ce:ee:54:65:e5:1b:48:53:72:56:1f:b5:d2:1c:b8:1c:f7:
        bc:6e:01:40:04:08:5f:04:9f:58:fe:22:0e:33:24:49:68:1a:
        52:92:5f:d6:e0:4f:d0:3d:df:b6:52:b1:1f:05:de:11:3d:36:
        e6:95:b2:fe:a0:a0:e8:3d:b8:e4:2f:9d:78:e3:cc:53:20:43:
        6c:f7:b3:25:d8:7f:f9:e9:71:7b:65:de:b1:ab:ba:d8:e3:a7:
        7b:c7:0d:b3:cb:db:73:25:41:d5:34:22:c8:ab:27:b2:03:4b:
        ef:b4:25:85:0c:e5:94:0f:62:f8:83:aa:79:61:b7:6b:33:4e:
        de:96:ee:35:c8:58:9d:e0:61:9b:d9:a5:4c:e3:58:26:a8:a0:
        8e:71:b9:af:68:b6:7f:54:a6:11:24:53:dd:ac:25:55:23:d5:
        61:e4:96:8e:33:91:b2:5a:e8:7f:ef:a9:b9:b1:5b:e5:ca:bf:
        ca:a4:00:ce:e7:87:a0:7a:c5:af:da:23:e1:37:be:ab:cb:e9:
        1a:f2:ea:13
-----BEGIN CERTIFICATE-----
MIIDVzCCAj+gAwIBAgIRAKIod/HjU34H2UPUT0qYkDwwDQYJKoZIhvcNAQELBQAw
FjEUMBIGA1UEAwwLRWFzeS1SU0EgQ0EwHhcNMjUxMTE0MTM0MjM4WhcNNDUxMTA5
MTM0MjM4WjATMREwDwYDVQQDDAhicmF2b2xvZzCCASIwDQYJKoZIhvcNAQEBBQAD
ggEPADCCAQoCggEBAKb9I2fAfFn9ir9MFZcLYf2f8WLpWPrZRoU94GifKoNOBGfs
T5ChYn6CMytDV/IJMVUJVjXjz/mZWulb1vf05/4SYDwmplEp9TIFbOBhNuP8hsds
cjVYahsqc8f48zS6n6MIVQDQFdeuwlqxVBLiSQ/Clo1zpO6KVkwrLqOMIerbUDwy
nYhKT5Vn249FFhZDWbyRocd1GKFowUQewQM0JC0XRDdcceVQvzHN2bD0FxuTfluw
DoTN7w9SIrTag0kZ0PqenqUfVD3BCdDStviex50l4z3zFoQYnmLmv2/jcaEJ4Ddl
53eggAg3leQPpQEgR26MxKEdlffZunLxzXjP3JkCAwEAAaOBojCBnzAJBgNVHRME
AjAAMB0GA1UdDgQWBBRv9A+Kf64Qc1rd2pHdsf7nKE1RmTBRBgNVHSMESjBIgBRk
BmmnAUYJ060TZdePsLUBMGhWo6EapBgwFjEUMBIGA1UEAwwLRWFzeS1SU0EgQ0GC
FEZji3n0AfkhAL/+Ferm85bi8oP4MBMGA1UdJQQMMAoGCCsGAQUFBwMCMAsGA1Ud
DwQEAwIHgDANBgkqhkiG9w0BAQsFAAOCAQEAD0DaHkVCbg6URIMR3HH0PacSe5lP
hM1XCRC5A9f4m7eETyWbTd0PI/VxoPj8Js+aU5o47ozmQM7uVGXlG0hTclYftdIc
uBz3vG4BQAQIXwSfWP4iDjMkSWgaUpJf1uBP0D3ftlKxHwXeET025pWy/qCg6D24
5C+deOPMUyBDbPezJdh/+elxe2Xesau62OOne8cNs8vbcyVB1TQiyKsnsgNL77Ql
hQzllA9i+IOqeWG3azNO3pbuNchYneBhm9mlTONYJqigjnG5r2i2f1SmESRT3awl
VSPVYeSWjjORslrof++pubFb5cq/yqQAzueHoHrFr9oj4Te+q8vpGvLqEw==
-----END CERTIFICATE-----
